target datalayout = "e-m:e-p270:32:32-p271:32:32-p272:64:64-i64:64-i128:128-f80:128-n8:16:32:64-S128"
target triple = "x86_64-pc-linux-gnu"

%class.LogTagSet = type { ptr, i64, [5 x i32], [4 x i8], %class.LogOutputList, %class.LogDecorators, ptr }
%class.LogOutputList = type <{ [6 x ptr], i32, [4 x i8] }>
%class.LogDecorators = type { i32 }
%class.nmethod = type <{ %class.CodeBlob.base, [2 x i8], i64, i64, ptr, %union.anon, ptr, ptr, ptr, ptr, ptr, ptr, ptr, i16, i16, i32, i32, i32, i32, i32, i32, i32, i16, i16, i16, i16, i16, i16, i32, i32, i32, i32, i32, i8, i8, i8, i8, i8, i8, [2 x i8] }>
%class.CodeBlob.base = type <{ ptr, ptr, ptr, i32, i32, i32, i32, i32, i32, i16, i16, i8, i8 }>
%union.anon = type { ptr }
%class.LogTargetImpl = type { i8 }
%class.LogStream = type { %class.LogStreamImpl }
%class.LogStreamImpl = type { %class.LogStreamImplBase, %class.LogTargetHandle }
%class.LogStreamImplBase = type { %class.outputStream, %"class.LogStreamImplBase::LineBuffer" }
%class.outputStream = type { ptr, i32, i8, i32, i64, %class.TimeStamp, ptr, i64 }
%class.TimeStamp = type { i64 }
%"class.LogStreamImplBase::LineBuffer" = type { [64 x i8], ptr, i64, i64 }
%class.LogTargetHandle = type { i32, ptr }
%"struct.Atomic::CmpxchgImpl.81" = type { i8 }
%"struct.Atomic::PlatformCmpxchg" = type { i8 }

@.str.52 = private unnamed_addr constant [44 x i8] c"oops_do, mark weak done -> mark strong done\00", align 1
@_ZN16LogTagSetMappingILN6LogTag4typeE49ELS1_94ELS1_0ELS1_0ELS1_0ELS1_0EE7_tagsetE = linkonce_odr hidden global %class.LogTagSet zeroinitializer, comdat, align 8
@_ZTV17LogStreamImplBase = linkonce_odr hidden unnamed_addr constant { [7 x ptr] } { [7 x ptr] [ptr null, ptr null, ptr @_ZN12outputStream5flushEv, ptr @__cxa_pure_virtual, ptr @_ZN12outputStream10rotate_logEbPS_, ptr @_ZN17LogStreamImplBaseD2Ev, ptr @_ZN17LogStreamImplBaseD0Ev] }, comdat, align 8

; Function Attrs: mustprogress nounwind uwtable
define linkonce_odr hidden void @_ZN17LogStreamImplBaseC2Ev(ptr noundef nonnull align 8 dereferenceable(144) %0) unnamed_addr #1 comdat align 2 {
  %2 = alloca ptr, align 8
  store ptr %0, ptr %2, align 8
  %3 = load ptr, ptr %2, align 8
  call void @_ZN12outputStreamC2Eb(ptr noundef nonnull align 8 dereferenceable(56) %3, i1 noundef zeroext false)
  store ptr getelementptr inbounds inrange(-16, 40) ({ [7 x ptr] }, ptr @_ZTV17LogStreamImplBase, i32 0, i32 0, i32 2), ptr %3, align 8
  %4 = getelementptr inbounds %class.LogStreamImplBase, ptr %3, i32 0, i32 1
  call void @_ZN17LogStreamImplBase10LineBufferC1Ev(ptr noundef nonnull align 8 dereferenceable(88) %4)
  ret void
}

; Function Attrs: mustprogress nounwind uwtable
define linkonce_odr hidden noundef zeroext i1 @_ZNK13LogOutputList8is_levelEN8LogLevel4typeE(ptr noundef nonnull align 8 dereferenceable(52) %0, i32 noundef %1) #1 comdat align 2 {
  %3 = alloca ptr, align 8
  %4 = alloca i32, align 4
  store ptr %0, ptr %3, align 8
  store i32 %1, ptr %4, align 4
  %5 = load ptr, ptr %3, align 8
  %6 = getelementptr inbounds %class.LogOutputList, ptr %5, i32 0, i32 0
  %7 = load i32, ptr %4, align 4
  %8 = zext i32 %7 to i64
  %9 = getelementptr inbounds [6 x ptr], ptr %6, i64 0, i64 %8
  %10 = load volatile ptr, ptr %9, align 8
  %11 = icmp ne ptr %10, null
  ret i1 %11
}

; Function Attrs: mustprogress nounwind uwtable
define linkonce_odr hidden noundef i32 @_ZNK7nmethod13osr_entry_bciEv(ptr noundef nonnull align 8 dereferenceable(214) %0) #1 comdat align 2 {
  %2 = alloca ptr, align 8
  store ptr %0, ptr %2, align 8
  %3 = load ptr, ptr %2, align 8
  %4 = getelementptr inbounds %class.nmethod, ptr %3, i32 0, i32 15
  %5 = load i32, ptr %4, align 4
  ret i32 %5
}

; Function Attrs: mustprogress nounwind uwtable
define linkonce_odr hidden noundef zeroext i1 @_ZNK7nmethod13is_osr_methodEv(ptr noundef nonnull align 8 dereferenceable(214) %0) #1 comdat align 2 {
  %2 = alloca ptr, align 8
  store ptr %0, ptr %2, align 8
  %3 = load ptr, ptr %2, align 8
  %4 = getelementptr inbounds %class.nmethod, ptr %3, i32 0, i32 15
  %5 = load i32, ptr %4, align 4
  %6 = icmp ne i32 %5, -1
  ret i1 %6
}

; Function Attrs: mustprogress nounwind uwtable
define linkonce_odr hidden noundef i32 @_ZNK7nmethod10comp_levelEv(ptr noundef nonnull align 8 dereferenceable(214) %0) #1 comdat align 2 {
  %2 = alloca ptr, align 8
  store ptr %0, ptr %2, align 8
  %3 = load ptr, ptr %2, align 8
  %4 = getelementptr inbounds %class.nmethod, ptr %3, i32 0, i32 33
  %5 = load i8, ptr %4, align 8
  %6 = sext i8 %5 to i32
  ret i32 %6
}

; Function Attrs: mustprogress nounwind uwtable
define linkonce_odr hidden noundef i32 @_ZNK7nmethod10compile_idEv(ptr noundef nonnull align 8 dereferenceable(214) %0) #1 comdat align 2 {
  %2 = alloca ptr, align 8
  store ptr %0, ptr %2, align 8
  %3 = load ptr, ptr %2, align 8
  %4 = getelementptr inbounds %class.nmethod, ptr %3, i32 0, i32 32
  %5 = load i32, ptr %4, align 4
  ret i32 %5
}

; Function Attrs: mustprogress nounwind uwtable
define linkonce_odr hidden noundef ptr @_ZNK7nmethod6methodEv(ptr noundef nonnull align 8 dereferenceable(214) %0) #1 comdat align 2 {
  %2 = alloca ptr, align 8
  store ptr %0, ptr %2, align 8
  %3 = load ptr, ptr %2, align 8
  %4 = getelementptr inbounds %class.nmethod, ptr %3, i32 0, i32 4
  %5 = load ptr, ptr %4, align 8
  ret ptr %5
}

; Function Attrs: mustprogress nounwind uwtable
define linkonce_odr hidden void @_ZN13LogStreamImplI15LogTargetHandleEC2ES0_(ptr noundef nonnull align 8 dereferenceable(160) %0, i32 %1, ptr %2) unnamed_addr #1 comdat align 2 {
  %4 = alloca %class.LogTargetHandle, align 8
  %5 = alloca ptr, align 8
  %6 = getelementptr inbounds { i32, ptr }, ptr %4, i32 0, i32 0
  store i32 %1, ptr %6, align 8
  %7 = getelementptr inbounds { i32, ptr }, ptr %4, i32 0, i32 1
  store ptr %2, ptr %7, align 8
  store ptr %0, ptr %5, align 8
  %8 = load ptr, ptr %5, align 8
  call void @_ZN17LogStreamImplBaseC2Ev(ptr noundef nonnull align 8 dereferenceable(144) %8)
  store ptr getelementptr inbounds inrange(-16, 40) ({ [7 x ptr] }, ptr @_ZTV13LogStreamImplI15LogTargetHandleE, i32 0, i32 0, i32 2), ptr %8, align 8
  %9 = getelementptr inbounds %class.LogStreamImpl, ptr %8, i32 0, i32 1
  call void @llvm.memcpy.p0.p0.i64(ptr align 8 %9, ptr align 8 %4, i64 16, i1 false)
  ret void
}

; Function Attrs: mustprogress nounwind uwtable
define linkonce_odr hidden void @_ZN15LogTargetHandleC2EN8LogLevel4typeER9LogTagSet(ptr noundef nonnull align 8 dereferenceable(16) %0, i32 noundef %1, ptr noundef nonnull align 8 dereferenceable(112) %2) unnamed_addr #1 comdat align 2 {
  %4 = alloca ptr, align 8
  %5 = alloca i32, align 4
  %6 = alloca ptr, align 8
  store ptr %0, ptr %4, align 8
  store i32 %1, ptr %5, align 4
  store ptr %2, ptr %6, align 8
  %7 = load ptr, ptr %4, align 8
  %8 = getelementptr inbounds %class.LogTargetHandle, ptr %7, i32 0, i32 0
  %9 = load i32, ptr %5, align 4
  store i32 %9, ptr %8, align 8
  %10 = getelementptr inbounds %class.LogTargetHandle, ptr %7, i32 0, i32 1
  %11 = load ptr, ptr %6, align 8
  store ptr %11, ptr %10, align 8
  ret void
}

; Function Attrs: mustprogress nounwind uwtable
define linkonce_odr hidden noundef zeroext i1 @_ZNK9LogTagSet8is_levelEN8LogLevel4typeE(ptr noundef nonnull align 8 dereferenceable(112) %0, i32 noundef %1) #1 comdat align 2 {
  %3 = alloca ptr, align 8
  %4 = alloca i32, align 4
  store ptr %0, ptr %3, align 8
  store i32 %1, ptr %4, align 4
  %5 = load ptr, ptr %3, align 8
  %6 = getelementptr inbounds %class.LogTagSet, ptr %5, i32 0, i32 4
  %7 = load i32, ptr %4, align 4
  %8 = call noundef zeroext i1 @_ZNK13LogOutputList8is_levelEN8LogLevel4typeE(ptr noundef nonnull align 8 dereferenceable(52) %6, i32 noundef %7)
  ret i1 %8
}

; Function Attrs: mustprogress nounwind uwtable
define linkonce_odr hidden noundef nonnull align 8 dereferenceable(112) ptr @_ZN16LogTagSetMappingILN6LogTag4typeE49ELS1_94ELS1_0ELS1_0ELS1_0ELS1_0EE6tagsetEv() #1 comdat align 2 {
  ret ptr @_ZN16LogTagSetMappingILN6LogTag4typeE49ELS1_94ELS1_0ELS1_0ELS1_0ELS1_0EE7_tagsetE
}

; Function Attrs: mustprogress nounwind uwtable
define linkonce_odr hidden noundef ptr @_ZNK6Atomic15PlatformCmpxchgILm8EEclIPN7nmethod17oops_do_mark_linkEEET_PVS6_S6_S6_19atomic_memory_order(ptr noundef nonnull align 1 dereferenceable(1) %0, ptr noundef %1, ptr noundef %2, ptr noundef %3, i32 noundef %4) #1 comdat align 2 {
  %6 = alloca ptr, align 8
  %7 = alloca ptr, align 8
  %8 = alloca ptr, align 8
  %9 = alloca ptr, align 8
  %10 = alloca i32, align 4
  store ptr %0, ptr %6, align 8
  store ptr %1, ptr %7, align 8
  store ptr %2, ptr %8, align 8
  store ptr %3, ptr %9, align 8
  store i32 %4, ptr %10, align 4
  %11 = load ptr, ptr %9, align 8
  %12 = load ptr, ptr %8, align 8
  %13 = load ptr, ptr %7, align 8
  %14 = call ptr asm sideeffect "lock cmpxchgq $1,($3)", "={ax},r,{ax},r,~{cc},~{memory},~{dirflag},~{fpsr},~{flags}"(ptr %11, ptr %12, ptr %13) #7, !srcloc !64
  store ptr %14, ptr %9, align 8
  %15 = load ptr, ptr %9, align 8
  ret ptr %15
}

; Function Attrs: mustprogress nounwind uwtable
define linkonce_odr hidden void @_ZN9LogStreamD2Ev(ptr noundef nonnull align 8 dereferenceable(160) %0) unnamed_addr #1 comdat align 2 {
  %2 = alloca ptr, align 8
  store ptr %0, ptr %2, align 8
  %3 = load ptr, ptr %2, align 8
  call void @_ZN13LogStreamImplI15LogTargetHandleED2Ev(ptr noundef nonnull align 8 dereferenceable(160) %3) #7
  ret void
}

; Function Attrs: mustprogress nounwind uwtable
define linkonce_odr hidden void @_ZN11CompileTask5printEP12outputStreamPK7nmethodPKcbb(ptr noundef %0, ptr noundef %1, ptr noundef %2, i1 noundef zeroext %3, i1 noundef zeroext %4) #1 comdat align 2 {
  %6 = alloca ptr, align 8
  %7 = alloca ptr, align 8
  %8 = alloca ptr, align 8
  %9 = alloca i8, align 1
  %10 = alloca i8, align 1
  store ptr %0, ptr %6, align 8
  store ptr %1, ptr %7, align 8
  store ptr %2, ptr %8, align 8
  %11 = zext i1 %3 to i8
  store i8 %11, ptr %9, align 1
  %12 = zext i1 %4 to i8
  store i8 %12, ptr %10, align 1
  %13 = load ptr, ptr %6, align 8
  %14 = load ptr, ptr %7, align 8
  %15 = call noundef ptr @_ZNK7nmethod6methodEv(ptr noundef nonnull align 8 dereferenceable(214) %14)
  %16 = load ptr, ptr %7, align 8
  %17 = call noundef i32 @_ZNK7nmethod10compile_idEv(ptr noundef nonnull align 8 dereferenceable(214) %16)
  %18 = load ptr, ptr %7, align 8
  %19 = call noundef i32 @_ZNK7nmethod10comp_levelEv(ptr noundef nonnull align 8 dereferenceable(214) %18)
  %20 = load ptr, ptr %7, align 8
  %21 = call noundef zeroext i1 @_ZNK7nmethod13is_osr_methodEv(ptr noundef nonnull align 8 dereferenceable(214) %20)
  %22 = load ptr, ptr %7, align 8
  %23 = call noundef zeroext i1 @_ZNK7nmethod13is_osr_methodEv(ptr noundef nonnull align 8 dereferenceable(214) %22)
  br i1 %23, label %24, label %27

24:                                               ; preds = %5
  %25 = load ptr, ptr %7, align 8
  %26 = call noundef i32 @_ZNK7nmethod13osr_entry_bciEv(ptr noundef nonnull align 8 dereferenceable(214) %25)
  br label %28

27:                                               ; preds = %5
  br label %28

28:                                               ; preds = %27, %24
  %29 = phi i32 [ %26, %24 ], [ -1, %27 ]
  %30 = load ptr, ptr %8, align 8
  %31 = load i8, ptr %9, align 1
  %32 = trunc i8 %31 to i1
  %33 = load i8, ptr %10, align 1
  %34 = trunc i8 %33 to i1
  call void @_ZN11CompileTask10print_implEP12outputStreamP6MethodiibibPKcbbll(ptr noundef %13, ptr noundef %15, i32 noundef %17, i32 noundef %19, i1 noundef zeroext %21, i32 noundef %29, i1 noundef zeroext false, ptr noundef %30, i1 noundef zeroext %32, i1 noundef zeroext %34, i64 noundef 0, i64 noundef 0)
  ret void
}

; Function Attrs: mustprogress nounwind uwtable
define linkonce_odr hidden void @_ZN9LogStreamC2ILN8LogLevel4typeE1ELN6LogTag4typeE49ELS4_94ELS4_0ELS4_0ELS4_0ELS4_0EEERK13LogTargetImplIXT_EXT0_EXT1_EXT2_EXT3_EXT4_EXT5_EE(ptr noundef nonnull align 8 dereferenceable(160) %0, ptr noundef nonnull align 1 dereferenceable(1) %1) unnamed_addr #1 comdat align 2 {
  %3 = alloca ptr, align 8
  %4 = alloca ptr, align 8
  %5 = alloca %class.LogTargetHandle, align 8
  store ptr %0, ptr %3, align 8
  store ptr %1, ptr %4, align 8
  %6 = load ptr, ptr %3, align 8
  %7 = call noundef nonnull align 8 dereferenceable(112) ptr @_ZN16LogTagSetMappingILN6LogTag4typeE49ELS1_94ELS1_0ELS1_0ELS1_0ELS1_0EE6tagsetEv()
  call void @_ZN15LogTargetHandleC2EN8LogLevel4typeER9LogTagSet(ptr noundef nonnull align 8 dereferenceable(16) %5, i32 noundef 1, ptr noundef nonnull align 8 dereferenceable(112) %7)
  %8 = getelementptr inbounds { i32, ptr }, ptr %5, i32 0, i32 0
  %9 = load i32, ptr %8, align 8
  %10 = getelementptr inbounds { i32, ptr }, ptr %5, i32 0, i32 1
  %11 = load ptr, ptr %10, align 8
  call void @_ZN13LogStreamImplI15LogTargetHandleEC2ES0_(ptr noundef nonnull align 8 dereferenceable(160) %6, i32 %9, ptr %11)
  store ptr getelementptr inbounds inrange(-16, 40) ({ [7 x ptr] }, ptr @_ZTV9LogStream, i32 0, i32 0, i32 2), ptr %6, align 8
  ret void
}

; Function Attrs: mustprogress nounwind uwtable
define linkonce_odr hidden noundef zeroext i1 @_ZN13LogTargetImplILN8LogLevel4typeE1ELN6LogTag4typeE49ELS3_94ELS3_0ELS3_0ELS3_0ELS3_0EE10is_enabledEv() #1 comdat align 2 {
  %1 = call noundef nonnull align 8 dereferenceable(112) ptr @_ZN16LogTagSetMappingILN6LogTag4typeE49ELS1_94ELS1_0ELS1_0ELS1_0ELS1_0EE6tagsetEv()
  %2 = call noundef zeroext i1 @_ZNK9LogTagSet8is_levelEN8LogLevel4typeE(ptr noundef nonnull align 8 dereferenceable(112) %1, i32 noundef 1)
  ret i1 %2
}

; Function Attrs: mustprogress nounwind uwtable
define linkonce_odr hidden void @_ZN13LogTargetImplILN8LogLevel4typeE1ELN6LogTag4typeE49ELS3_94ELS3_0ELS3_0ELS3_0ELS3_0EEC2Ev(ptr noundef nonnull align 1 dereferenceable(1) %0) unnamed_addr #1 comdat align 2 {
  %2 = alloca ptr, align 8
  store ptr %0, ptr %2, align 8
  ret void
}

; Function Attrs: mustprogress nounwind uwtable
define linkonce_odr hidden noundef ptr @_ZNK6Atomic11CmpxchgImplIPN7nmethod17oops_do_mark_linkES3_S3_vEclEPVS3_S3_S3_19atomic_memory_order(ptr noundef nonnull align 1 dereferenceable(1) %0, ptr noundef %1, ptr noundef %2, ptr noundef %3, i32 noundef %4) #1 comdat align 2 {
  %6 = alloca ptr, align 8
  %7 = alloca ptr, align 8
  %8 = alloca ptr, align 8
  %9 = alloca ptr, align 8
  %10 = alloca i32, align 4
  %11 = alloca ptr, align 8
  %12 = alloca ptr, align 8
  %13 = alloca %"struct.Atomic::PlatformCmpxchg", align 1
  store ptr %0, ptr %6, align 8
  store ptr %1, ptr %7, align 8
  store ptr %2, ptr %8, align 8
  store ptr %3, ptr %9, align 8
  store i32 %4, ptr %10, align 4
  %14 = load ptr, ptr %9, align 8
  store ptr %14, ptr %11, align 8
  %15 = load ptr, ptr %8, align 8
  store ptr %15, ptr %12, align 8
  %16 = load ptr, ptr %7, align 8
  %17 = load ptr, ptr %12, align 8
  %18 = load ptr, ptr %11, align 8
  %19 = load i32, ptr %10, align 4
  %20 = call noundef ptr @_ZNK6Atomic15PlatformCmpxchgILm8EEclIPN7nmethod17oops_do_mark_linkEEET_PVS6_S6_S6_19atomic_memory_order(ptr noundef nonnull align 1 dereferenceable(1) %13, ptr noundef %16, ptr noundef %17, ptr noundef %18, i32 noundef %19)
  ret ptr %20
}

; Function Attrs: mustprogress nounwind uwtable
define hidden void @_ZN7nmethod18oops_do_log_changeEPKc(ptr noundef nonnull align 8 dereferenceable(214) %0, ptr noundef %1) #1 align 2 {
  %3 = alloca ptr, align 8
  %4 = alloca ptr, align 8
  %5 = alloca %class.LogTargetImpl, align 1
  %6 = alloca %class.LogStream, align 8
  store ptr %0, ptr %3, align 8
  store ptr %1, ptr %4, align 8
  %7 = load ptr, ptr %3, align 8
  call void @_ZN13LogTargetImplILN8LogLevel4typeE1ELN6LogTag4typeE49ELS3_94ELS3_0ELS3_0ELS3_0ELS3_0EEC2Ev(ptr noundef nonnull align 1 dereferenceable(1) %5)
  %8 = call noundef zeroext i1 @_ZN13LogTargetImplILN8LogLevel4typeE1ELN6LogTag4typeE49ELS3_94ELS3_0ELS3_0ELS3_0ELS3_0EE10is_enabledEv()
  br i1 %8, label %9, label %11

9:                                                ; preds = %2
  call void @_ZN9LogStreamC2ILN8LogLevel4typeE1ELN6LogTag4typeE49ELS4_94ELS4_0ELS4_0ELS4_0ELS4_0EEERK13LogTargetImplIXT_EXT0_EXT1_EXT2_EXT3_EXT4_EXT5_EE(ptr noundef nonnull align 8 dereferenceable(160) %6, ptr noundef nonnull align 1 dereferenceable(1) %5)
  %10 = load ptr, ptr %4, align 8
  call void @_ZN11CompileTask5printEP12outputStreamPK7nmethodPKcbb(ptr noundef %6, ptr noundef %7, ptr noundef %10, i1 noundef zeroext true, i1 noundef zeroext true)
  call void @_ZN9LogStreamD2Ev(ptr noundef nonnull align 8 dereferenceable(160) %6) #7
  br label %11

11:                                               ; preds = %9, %2
  ret void
}

; Function Attrs: mustprogress nounwind uwtable
define linkonce_odr hidden noundef ptr @_ZN6Atomic7cmpxchgIPN7nmethod17oops_do_mark_linkES3_S3_EET_PVS4_T0_T1_19atomic_memory_order(ptr noundef %0, ptr noundef %1, ptr noundef %2, i32 noundef %3) #1 comdat align 2 {
  %5 = alloca ptr, align 8
  %6 = alloca ptr, align 8
  %7 = alloca ptr, align 8
  %8 = alloca i32, align 4
  %9 = alloca %"struct.Atomic::CmpxchgImpl.81", align 1
  store ptr %0, ptr %5, align 8
  store ptr %1, ptr %6, align 8
  store ptr %2, ptr %7, align 8
  store i32 %3, ptr %8, align 4
  %10 = load ptr, ptr %5, align 8
  %11 = load ptr, ptr %6, align 8
  %12 = load ptr, ptr %7, align 8
  %13 = load i32, ptr %8, align 4
  %14 = call noundef ptr @_ZNK6Atomic11CmpxchgImplIPN7nmethod17oops_do_mark_linkES3_S3_vEclEPVS3_S3_S3_19atomic_memory_order(ptr noundef nonnull align 1 dereferenceable(1) %9, ptr noundef %10, ptr noundef %11, ptr noundef %12, i32 noundef %13)
  ret ptr %14
}

; Function Attrs: mustprogress nounwind uwtable
define linkonce_odr hidden noundef ptr @_ZN7nmethod9mark_linkEPS_j(ptr noundef %0, i32 noundef %1) #1 comdat align 2 {
  %3 = alloca ptr, align 8
  %4 = alloca i32, align 4
  store ptr %0, ptr %3, align 8
  store i32 %1, ptr %4, align 4
  %5 = load ptr, ptr %3, align 8
  %6 = ptrtoint ptr %5 to i64
  %7 = and i64 %6, -4
  %8 = load i32, ptr %4, align 4
  %9 = zext i32 %8 to i64
  %10 = or i64 %7, %9
  %11 = inttoptr i64 %10 to ptr
  ret ptr %11
}

; Function Attrs: mustprogress nounwind uwtable
define linkonce_odr hidden noundef ptr @_ZN7nmethod15extract_nmethodEPNS_17oops_do_mark_linkE(ptr noundef %0) #1 comdat align 2 {
  %2 = alloca ptr, align 8
  store ptr %0, ptr %2, align 8
  %3 = load ptr, ptr %2, align 8
  %4 = ptrtoint ptr %3 to i64
  %5 = and i64 %4, -4
  %6 = inttoptr i64 %5 to ptr
  ret ptr %6
}

; Function Attrs: mustprogress nounwind uwtable
define hidden noundef zeroext i1 @_ZN7nmethod42oops_do_try_claim_weak_done_as_strong_doneEPNS_17oops_do_mark_linkE(ptr noundef nonnull align 8 dereferenceable(214) %0, ptr noundef %1) #1 align 2 {
  %3 = alloca i1, align 1
  %4 = alloca ptr, align 8
  %5 = alloca ptr, align 8
  %6 = alloca ptr, align 8
  store ptr %0, ptr %4, align 8
  store ptr %1, ptr %5, align 8
  %7 = load ptr, ptr %4, align 8
  %8 = getelementptr inbounds %class.nmethod, ptr %7, i32 0, i32 10
  %9 = load ptr, ptr %5, align 8
  %10 = load ptr, ptr %5, align 8
  %11 = call noundef ptr @_ZN7nmethod15extract_nmethodEPNS_17oops_do_mark_linkE(ptr noundef %10)
  %12 = call noundef ptr @_ZN7nmethod9mark_linkEPS_j(ptr noundef %11, i32 noundef 3)
  %13 = call noundef ptr @_ZN6Atomic7cmpxchgIPN7nmethod17oops_do_mark_linkES3_S3_EET_PVS4_T0_T1_19atomic_memory_order(ptr noundef %8, ptr noundef %9, ptr noundef %12, i32 noundef 8)
  store ptr %13, ptr %6, align 8
  %14 = load ptr, ptr %6, align 8
  %15 = load ptr, ptr %5, align 8
  %16 = icmp eq ptr %14, %15
  br i1 %16, label %17, label %18

17:                                               ; preds = %2
  call void @_ZN7nmethod18oops_do_log_changeEPKc(ptr noundef nonnull align 8 dereferenceable(214) %7, ptr noundef @.str.52)
  store i1 true, ptr %3, align 1
  br label %19

18:                                               ; preds = %2
  store i1 false, ptr %3, align 1
  br label %19

19:                                               ; preds = %18, %17
  %20 = load i1, ptr %3, align 1
  ret i1 %20
}