; Function Attrs: mustprogress nounwind uwtable
define hidden noundef zeroext i1 @_ZN7nmethod42oops_do_try_claim_weak_done_as_strong_doneEPNS_17oops_do_mark_linkE(ptr noundef nonnull align 8 dereferenceable(214) %0, ptr noundef %1) local_unnamed_addr #0 align 2 {
  %3 = alloca %class.LogStream, align 8
  %4 = getelementptr inbounds i8, ptr %0, i64 120
  %5 = ptrtoint ptr %1 to i64
  %6 = or i64 %5, 3
  %7 = inttoptr i64 %6 to ptr
  %8 = tail call noundef ptr asm sideeffect "lock cmpxchgq $1,($3)", "={ax},r,{ax},r,~{cc},~{memory},~{dirflag},~{fpsr},~{flags}"(ptr nonnull %7, ptr %1, ptr nonnull %4) #23, !srcloc !15
  %9 = icmp eq ptr %8, %1
  br i1 %9, label %10, label %25

10:                                               ; preds = %2
  call void @llvm.lifetime.start.p0(i64 160, ptr nonnull %3)
  %11 = load volatile ptr, ptr getelementptr inbounds (i8, ptr @_ZN16LogTagSetMappingILN6LogTag4typeE49ELS1_94ELS1_0ELS1_0ELS1_0ELS1_0EE7_tagsetE, i64 48), align 8
  %.not.i = icmp eq ptr %11, null
  br i1 %.not.i, label %_ZN7nmethod18oops_do_log_changeEPKc.exit, label %12

12:                                               ; preds = %10
  call void @_ZN12outputStreamC2Eb(ptr noundef nonnull align 8 dereferenceable(56) %3, i1 noundef zeroext false) #23
  store ptr getelementptr inbounds inrange(-16, 40) (i8, ptr @_ZTV17LogStreamImplBase, i64 16), ptr %3, align 8
  %13 = getelementptr inbounds i8, ptr %3, i64 56
  call void @_ZN17LogStreamImplBase10LineBufferC1Ev(ptr noundef nonnull align 8 dereferenceable(88) %13) #23
  %14 = getelementptr inbounds i8, ptr %3, i64 144
  store i32 1, ptr %14, align 8
  %.sroa.21.0..sroa_idx.i.i.i = getelementptr inbounds i8, ptr %3, i64 152
  store ptr @_ZN16LogTagSetMappingILN6LogTag4typeE49ELS1_94ELS1_0ELS1_0ELS1_0ELS1_0EE7_tagsetE, ptr %.sroa.21.0..sroa_idx.i.i.i, align 8
  store ptr getelementptr inbounds inrange(-16, 40) (i8, ptr @_ZTV9LogStream, i64 16), ptr %3, align 8
  %15 = getelementptr inbounds i8, ptr %0, i64 72
  %16 = load ptr, ptr %15, align 8
  %17 = getelementptr inbounds i8, ptr %0, i64 204
  %18 = load i32, ptr %17, align 4
  %19 = getelementptr inbounds i8, ptr %0, i64 208
  %20 = load i8, ptr %19, align 8
  %21 = sext i8 %20 to i32
  %22 = getelementptr inbounds i8, ptr %0, i64 148
  %23 = load i32, ptr %22, align 4
  %24 = icmp ne i32 %23, -1
  call void @_ZN11CompileTask10print_implEP12outputStreamP6MethodiibibPKcbbll(ptr noundef nonnull %3, ptr noundef %16, i32 noundef %18, i32 noundef %21, i1 noundef zeroext %24, i32 noundef %23, i1 noundef zeroext false, ptr noundef nonnull @.str.52, i1 noundef zeroext true, i1 noundef zeroext true, i64 noundef 0, i64 noundef 0) #23
  call void @_ZN13LogStreamImplI15LogTargetHandleED2Ev(ptr noundef nonnull align 8 dereferenceable(160) %3) #23
  br label %_ZN7nmethod18oops_do_log_changeEPKc.exit

_ZN7nmethod18oops_do_log_changeEPKc.exit:         ; preds = %10, %12
  call void @llvm.lifetime.end.p0(i64 160, ptr nonnull %3)
  br label %25

25:                                               ; preds = %2, %_ZN7nmethod18oops_do_log_changeEPKc.exit
  ret i1 %9
}